target datalayout = "e-m:e-p270:32:32-p271:32:32-p272:64:64-i64:64-i128:128-f80:128-n8:16:32:64-S128"
target triple = "x86_64-pc-linux-gnu"

%"struct.Luau::CodeGen::X64::RegisterX64" = type { i8 }
%"struct.Luau::CodeGen::X64::IrRegAllocX64" = type { ptr, ptr, ptr, i32, %"struct.std::array", %"struct.std::array.0", %"struct.std::array", %"struct.std::array.0", i8, %"class.std::bitset", i32, i32, %"class.std::vector" }
%"struct.std::array" = type { [16 x i8] }
%"struct.std::array.0" = type { [16 x i32] }
%"class.std::bitset" = type { %"struct.std::_Base_bitset" }
%"struct.std::_Base_bitset" = type { [4 x i64] }
%"class.std::vector" = type { %"struct.std::_Vector_base" }
%"struct.std::_Vector_base" = type { %"struct.std::_Vector_base<Luau::CodeGen::X64::IrSpillX64, std::allocator<Luau::CodeGen::X64::IrSpillX64>>::_Vector_impl" }
%"struct.std::_Vector_base<Luau::CodeGen::X64::IrSpillX64, std::allocator<Luau::CodeGen::X64::IrSpillX64>>::_Vector_impl" = type { %"struct.std::_Vector_base<Luau::CodeGen::X64::IrSpillX64, std::allocator<Luau::CodeGen::X64::IrSpillX64>>::_Vector_impl_data" }
%"struct.std::_Vector_base<Luau::CodeGen::X64::IrSpillX64, std::allocator<Luau::CodeGen::X64::IrSpillX64>>::_Vector_impl_data" = type { ptr, ptr, ptr }
%"class.std::vector.1" = type { %"struct.std::_Vector_base.2" }
%"struct.std::_Vector_base.2" = type { %"struct.std::_Vector_base<unsigned char, std::allocator<unsigned char>>::_Vector_impl" }
%"struct.std::_Vector_base<unsigned char, std::allocator<unsigned char>>::_Vector_impl" = type { %"struct.std::_Vector_base<unsigned char, std::allocator<unsigned char>>::_Vector_impl_data" }
%"struct.std::_Vector_base<unsigned char, std::allocator<unsigned char>>::_Vector_impl_data" = type { ptr, ptr, ptr }
%"class.std::vector.14" = type { %"struct.std::_Vector_base.15" }
%"struct.std::_Vector_base.15" = type { %"struct.std::_Vector_base<unsigned int, std::allocator<unsigned int>>::_Vector_impl" }
%"struct.std::_Vector_base<unsigned int, std::allocator<unsigned int>>::_Vector_impl" = type { %"struct.std::_Vector_base<unsigned int, std::allocator<unsigned int>>::_Vector_impl_data" }
%"struct.std::_Vector_base<unsigned int, std::allocator<unsigned int>>::_Vector_impl_data" = type { ptr, ptr, ptr }
%"struct.Luau::CodeGen::IrFunction" = type { %"class.std::vector.26", %"class.std::vector.31", %"class.std::vector.36", %"class.std::vector.41", %"class.std::vector.46", %"class.std::vector.51", i32, i32, %"class.std::vector.56", %"class.std::vector.14", %"struct.Luau::CodeGen::BytecodeTypeInfo", ptr, i8, %"struct.Luau::CodeGen::CfgInfo" }
%"class.std::vector.26" = type { %"struct.std::_Vector_base.27" }
%"struct.std::_Vector_base.27" = type { %"struct.std::_Vector_base<Luau::CodeGen::IrBlock, std::allocator<Luau::CodeGen::IrBlock>>::_Vector_impl" }
%"struct.std::_Vector_base<Luau::CodeGen::IrBlock, std::allocator<Luau::CodeGen::IrBlock>>::_Vector_impl" = type { %"struct.std::_Vector_base<Luau::CodeGen::IrBlock, std::allocator<Luau::CodeGen::IrBlock>>::_Vector_impl_data" }
%"struct.std::_Vector_base<Luau::CodeGen::IrBlock, std::allocator<Luau::CodeGen::IrBlock>>::_Vector_impl_data" = type { ptr, ptr, ptr }
%"class.std::vector.31" = type { %"struct.std::_Vector_base.32" }
%"struct.std::_Vector_base.32" = type { %"struct.std::_Vector_base<Luau::CodeGen::IrInst, std::allocator<Luau::CodeGen::IrInst>>::_Vector_impl" }
%"struct.std::_Vector_base<Luau::CodeGen::IrInst, std::allocator<Luau::CodeGen::IrInst>>::_Vector_impl" = type { %"struct.std::_Vector_base<Luau::CodeGen::IrInst, std::allocator<Luau::CodeGen::IrInst>>::_Vector_impl_data" }
%"struct.std::_Vector_base<Luau::CodeGen::IrInst, std::allocator<Luau::CodeGen::IrInst>>::_Vector_impl_data" = type { ptr, ptr, ptr }
%"class.std::vector.36" = type { %"struct.std::_Vector_base.37" }
%"struct.std::_Vector_base.37" = type { %"struct.std::_Vector_base<Luau::CodeGen::IrConst, std::allocator<Luau::CodeGen::IrConst>>::_Vector_impl" }
%"struct.std::_Vector_base<Luau::CodeGen::IrConst, std::allocator<Luau::CodeGen::IrConst>>::_Vector_impl" = type { %"struct.std::_Vector_base<Luau::CodeGen::IrConst, std::allocator<Luau::CodeGen::IrConst>>::_Vector_impl_data" }
%"struct.std::_Vector_base<Luau::CodeGen::IrConst, std::allocator<Luau::CodeGen::IrConst>>::_Vector_impl_data" = type { ptr, ptr, ptr }
%"class.std::vector.41" = type { %"struct.std::_Vector_base.42" }
%"struct.std::_Vector_base.42" = type { %"struct.std::_Vector_base<Luau::CodeGen::BytecodeBlock, std::allocator<Luau::CodeGen::BytecodeBlock>>::_Vector_impl" }
%"struct.std::_Vector_base<Luau::CodeGen::BytecodeBlock, std::allocator<Luau::CodeGen::BytecodeBlock>>::_Vector_impl" = type { %"struct.std::_Vector_base<Luau::CodeGen::BytecodeBlock, std::allocator<Luau::CodeGen::BytecodeBlock>>::_Vector_impl_data" }
%"struct.std::_Vector_base<Luau::CodeGen::BytecodeBlock, std::allocator<Luau::CodeGen::BytecodeBlock>>::_Vector_impl_data" = type { ptr, ptr, ptr }
%"class.std::vector.46" = type { %"struct.std::_Vector_base.47" }
%"struct.std::_Vector_base.47" = type { %"struct.std::_Vector_base<Luau::CodeGen::BytecodeTypes, std::allocator<Luau::CodeGen::BytecodeTypes>>::_Vector_impl" }
%"struct.std::_Vector_base<Luau::CodeGen::BytecodeTypes, std::allocator<Luau::CodeGen::BytecodeTypes>>::_Vector_impl" = type { %"struct.std::_Vector_base<Luau::CodeGen::BytecodeTypes, std::allocator<Luau::CodeGen::BytecodeTypes>>::_Vector_impl_data" }
%"struct.std::_Vector_base<Luau::CodeGen::BytecodeTypes, std::allocator<Luau::CodeGen::BytecodeTypes>>::_Vector_impl_data" = type { ptr, ptr, ptr }
%"class.std::vector.51" = type { %"struct.std::_Vector_base.52" }
%"struct.std::_Vector_base.52" = type { %"struct.std::_Vector_base<Luau::CodeGen::BytecodeMapping, std::allocator<Luau::CodeGen::BytecodeMapping>>::_Vector_impl" }
%"struct.std::_Vector_base<Luau::CodeGen::BytecodeMapping, std::allocator<Luau::CodeGen::BytecodeMapping>>::_Vector_impl" = type { %"struct.std::_Vector_base<Luau::CodeGen::BytecodeMapping, std::allocator<Luau::CodeGen::BytecodeMapping>>::_Vector_impl_data" }
%"struct.std::_Vector_base<Luau::CodeGen::BytecodeMapping, std::allocator<Luau::CodeGen::BytecodeMapping>>::_Vector_impl_data" = type { ptr, ptr, ptr }
%"class.std::vector.56" = type { %"struct.std::_Vector_base.57" }
%"struct.std::_Vector_base.57" = type { %"struct.std::_Vector_base<Luau::CodeGen::IrOp, std::allocator<Luau::CodeGen::IrOp>>::_Vector_impl" }
%"struct.std::_Vector_base<Luau::CodeGen::IrOp, std::allocator<Luau::CodeGen::IrOp>>::_Vector_impl" = type { %"struct.std::_Vector_base<Luau::CodeGen::IrOp, std::allocator<Luau::CodeGen::IrOp>>::_Vector_impl_data" }
%"struct.std::_Vector_base<Luau::CodeGen::IrOp, std::allocator<Luau::CodeGen::IrOp>>::_Vector_impl_data" = type { ptr, ptr, ptr }
%"struct.Luau::CodeGen::BytecodeTypeInfo" = type { %"class.std::vector.1", %"class.std::vector.61", %"class.std::vector.1", %"class.std::vector.14" }
%"class.std::vector.61" = type { %"struct.std::_Vector_base.62" }
%"struct.std::_Vector_base.62" = type { %"struct.std::_Vector_base<Luau::CodeGen::BytecodeRegTypeInfo, std::allocator<Luau::CodeGen::BytecodeRegTypeInfo>>::_Vector_impl" }
%"struct.std::_Vector_base<Luau::CodeGen::BytecodeRegTypeInfo, std::allocator<Luau::CodeGen::BytecodeRegTypeInfo>>::_Vector_impl" = type { %"struct.std::_Vector_base<Luau::CodeGen::BytecodeRegTypeInfo, std::allocator<Luau::CodeGen::BytecodeRegTypeInfo>>::_Vector_impl_data" }
%"struct.std::_Vector_base<Luau::CodeGen::BytecodeRegTypeInfo, std::allocator<Luau::CodeGen::BytecodeRegTypeInfo>>::_Vector_impl_data" = type { ptr, ptr, ptr }
%"struct.Luau::CodeGen::CfgInfo" = type { %"class.std::vector.14", %"class.std::vector.14", %"class.std::vector.14", %"class.std::vector.14", %"class.std::vector.14", %"class.std::vector.14", %"class.std::vector.14", %"class.std::vector.66", %"class.std::vector.71", %"class.std::vector.71", %"class.std::vector.71", %"struct.Luau::CodeGen::RegisterSet" }
%"class.std::vector.66" = type { %"struct.std::_Vector_base.67" }
%"struct.std::_Vector_base.67" = type { %"struct.std::_Vector_base<Luau::CodeGen::BlockOrdering, std::allocator<Luau::CodeGen::BlockOrdering>>::_Vector_impl" }
%"struct.std::_Vector_base<Luau::CodeGen::BlockOrdering, std::allocator<Luau::CodeGen::BlockOrdering>>::_Vector_impl" = type { %"struct.std::_Vector_base<Luau::CodeGen::BlockOrdering, std::allocator<Luau::CodeGen::BlockOrdering>>::_Vector_impl_data" }
%"struct.std::_Vector_base<Luau::CodeGen::BlockOrdering, std::allocator<Luau::CodeGen::BlockOrdering>>::_Vector_impl_data" = type { ptr, ptr, ptr }
%"class.std::vector.71" = type { %"struct.std::_Vector_base.72" }
%"struct.std::_Vector_base.72" = type { %"struct.std::_Vector_base<Luau::CodeGen::RegisterSet, std::allocator<Luau::CodeGen::RegisterSet>>::_Vector_impl" }
%"struct.std::_Vector_base<Luau::CodeGen::RegisterSet, std::allocator<Luau::CodeGen::RegisterSet>>::_Vector_impl" = type { %"struct.std::_Vector_base<Luau::CodeGen::RegisterSet, std::allocator<Luau::CodeGen::RegisterSet>>::_Vector_impl_data" }
%"struct.std::_Vector_base<Luau::CodeGen::RegisterSet, std::allocator<Luau::CodeGen::RegisterSet>>::_Vector_impl_data" = type { ptr, ptr, ptr }
%"struct.Luau::CodeGen::RegisterSet" = type <{ %"class.std::bitset", i8, i8, [6 x i8] }>
%"struct.Luau::CodeGen::IrInst" = type <{ i8, [3 x i8], %"struct.Luau::CodeGen::IrOp", %"struct.Luau::CodeGen::IrOp", %"struct.Luau::CodeGen::IrOp", %"struct.Luau::CodeGen::IrOp", %"struct.Luau::CodeGen::IrOp", %"struct.Luau::CodeGen::IrOp", %"struct.Luau::CodeGen::IrOp", i32, i16, %"struct.Luau::CodeGen::X64::RegisterX64", %"struct.Luau::CodeGen::A64::RegisterA64", i8, i8, i8, i8 }>
%"struct.Luau::CodeGen::IrOp" = type { i32 }
%"struct.Luau::CodeGen::A64::RegisterA64" = type { i8 }
%"struct.Luau::CodeGen::X64::ScopedRegX64" = type <{ ptr, %"struct.Luau::CodeGen::X64::RegisterX64", [7 x i8] }>

; Function Attrs: mustprogress nounwind uwtable
define linkonce_odr dso_local noundef nonnull align 4 dereferenceable(4) ptr @_ZNSt14__array_traitsIjLm16EE6_S_refERA16_Kjm(ptr noundef nonnull align 4 dereferenceable(64) %0, i64 noundef %1) #1 comdat align 2 {
  %3 = alloca ptr, align 8
  %4 = alloca i64, align 8
  store ptr %0, ptr %3, align 8
  store i64 %1, ptr %4, align 8
  %5 = load ptr, ptr %3, align 8
  %6 = load i64, ptr %4, align 8
  %7 = getelementptr inbounds [16 x i32], ptr %5, i64 0, i64 %6
  ret ptr %7
}

; Function Attrs: mustprogress nounwind uwtable
define linkonce_odr dso_local noundef nonnull align 1 dereferenceable(1) ptr @_ZNSt14__array_traitsIbLm16EE6_S_refERA16_Kbm(ptr noundef nonnull align 1 dereferenceable(16) %0, i64 noundef %1) #1 comdat align 2 {
  %3 = alloca ptr, align 8
  %4 = alloca i64, align 8
  store ptr %0, ptr %3, align 8
  store i64 %1, ptr %4, align 8
  %5 = load ptr, ptr %3, align 8
  %6 = load i64, ptr %4, align 8
  %7 = getelementptr inbounds [16 x i8], ptr %5, i64 0, i64 %6
  ret ptr %7
}

; Function Attrs: mustprogress nounwind uwtable
define linkonce_odr dso_local noundef nonnull align 4 dereferenceable(43) ptr @_ZNSt6vectorIN4Luau7CodeGen6IrInstESaIS2_EEixEm(ptr noundef nonnull align 8 dereferenceable(24) %0, i64 noundef %1) #1 comdat align 2 {
  %3 = alloca ptr, align 8
  %4 = alloca i64, align 8
  store ptr %0, ptr %3, align 8
  store i64 %1, ptr %4, align 8
  %5 = load ptr, ptr %3, align 8
  %6 = getelementptr inbounds %"struct.std::_Vector_base.32", ptr %5, i32 0, i32 0
  %7 = getelementptr inbounds %"struct.std::_Vector_base<Luau::CodeGen::IrInst, std::allocator<Luau::CodeGen::IrInst>>::_Vector_impl_data", ptr %6, i32 0, i32 0
  %8 = load ptr, ptr %7, align 8
  %9 = load i64, ptr %4, align 8
  %10 = getelementptr inbounds %"struct.Luau::CodeGen::IrInst", ptr %8, i64 %9
  ret ptr %10
}

; Function Attrs: mustprogress nounwind uwtable
define linkonce_odr dso_local noundef nonnull align 4 dereferenceable(4) ptr @_ZNSt5arrayIjLm16EEixEm(ptr noundef nonnull align 4 dereferenceable(64) %0, i64 noundef %1) #1 comdat align 2 {
  %3 = alloca ptr, align 8
  %4 = alloca i64, align 8
  store ptr %0, ptr %3, align 8
  store i64 %1, ptr %4, align 8
  %5 = load ptr, ptr %3, align 8
  %6 = getelementptr inbounds %"struct.std::array.0", ptr %5, i32 0, i32 0
  %7 = load i64, ptr %4, align 8
  %8 = call noundef nonnull align 4 dereferenceable(4) ptr @_ZNSt14__array_traitsIjLm16EE6_S_refERA16_Kjm(ptr noundef nonnull align 4 dereferenceable(64) %6, i64 noundef %7) #10
  ret ptr %8
}

; Function Attrs: mustprogress nounwind uwtable
define linkonce_odr dso_local noundef nonnull align 1 dereferenceable(1) ptr @_ZNSt5arrayIbLm16EEixEm(ptr noundef nonnull align 1 dereferenceable(16) %0, i64 noundef %1) #1 comdat align 2 {
  %3 = alloca ptr, align 8
  %4 = alloca i64, align 8
  store ptr %0, ptr %3, align 8
  store i64 %1, ptr %4, align 8
  %5 = load ptr, ptr %3, align 8
  %6 = getelementptr inbounds %"struct.std::array", ptr %5, i32 0, i32 0
  %7 = load i64, ptr %4, align 8
  %8 = call noundef nonnull align 1 dereferenceable(1) ptr @_ZNSt14__array_traitsIbLm16EE6_S_refERA16_Kbm(ptr noundef nonnull align 1 dereferenceable(16) %6, i64 noundef %7) #10
  ret ptr %8
}

; Function Attrs: mustprogress uwtable
define dso_local i8 @_ZN4Luau7CodeGen3X6413IrRegAllocX647takeRegENS1_11RegisterX64Ej(ptr noundef nonnull align 8 dereferenceable(256) %0, i8 %1, i32 noundef %2) #0 align 2 {
  %4 = alloca %"struct.Luau::CodeGen::X64::RegisterX64", align 1
  %5 = alloca %"struct.Luau::CodeGen::X64::RegisterX64", align 1
  %6 = alloca ptr, align 8
  %7 = alloca i32, align 4
  %8 = getelementptr inbounds %"struct.Luau::CodeGen::X64::RegisterX64", ptr %5, i32 0, i32 0
  store i8 %1, ptr %8, align 1
  store ptr %0, ptr %6, align 8
  store i32 %2, ptr %7, align 4
  %9 = load ptr, ptr %6, align 8
  %10 = load i8, ptr %5, align 1
  %11 = and i8 %10, 7
  %12 = icmp eq i8 %11, 5
  br i1 %12, label %13, label %45

13:                                               ; preds = %3
  %14 = getelementptr inbounds %"struct.Luau::CodeGen::X64::IrRegAllocX64", ptr %9, i32 0, i32 6
  %15 = load i8, ptr %5, align 1
  %16 = lshr i8 %15, 3
  %17 = zext i8 %16 to i64
  %18 = call noundef nonnull align 1 dereferenceable(1) ptr @_ZNSt5arrayIbLm16EEixEm(ptr noundef nonnull align 1 dereferenceable(16) %14, i64 noundef %17) #10
  %19 = load i8, ptr %18, align 1
  %20 = trunc i8 %19 to i1
  br i1 %20, label %33, label %21

21:                                               ; preds = %13
  %22 = getelementptr inbounds %"struct.Luau::CodeGen::X64::IrRegAllocX64", ptr %9, i32 0, i32 1
  %23 = load ptr, ptr %22, align 8
  %24 = getelementptr inbounds %"struct.Luau::CodeGen::IrFunction", ptr %23, i32 0, i32 1
  %25 = getelementptr inbounds %"struct.Luau::CodeGen::X64::IrRegAllocX64", ptr %9, i32 0, i32 7
  %26 = load i8, ptr %5, align 1
  %27 = lshr i8 %26, 3
  %28 = zext i8 %27 to i64
  %29 = call noundef nonnull align 4 dereferenceable(4) ptr @_ZNSt5arrayIjLm16EEixEm(ptr noundef nonnull align 4 dereferenceable(64) %25, i64 noundef %28) #10
  %30 = load i32, ptr %29, align 4
  %31 = zext i32 %30 to i64
  %32 = call noundef nonnull align 4 dereferenceable(43) ptr @_ZNSt6vectorIN4Luau7CodeGen6IrInstESaIS2_EEixEm(ptr noundef nonnull align 8 dereferenceable(24) %24, i64 noundef %31) #10
  call void @_ZN4Luau7CodeGen3X6413IrRegAllocX648preserveERNS0_6IrInstE(ptr noundef nonnull align 8 dereferenceable(256) %9, ptr noundef nonnull align 4 dereferenceable(43) %32)
  br label %33

33:                                               ; preds = %21, %13
  %34 = getelementptr inbounds %"struct.Luau::CodeGen::X64::IrRegAllocX64", ptr %9, i32 0, i32 6
  %35 = load i8, ptr %5, align 1
  %36 = lshr i8 %35, 3
  %37 = zext i8 %36 to i64
  %38 = call noundef nonnull align 1 dereferenceable(1) ptr @_ZNSt5arrayIbLm16EEixEm(ptr noundef nonnull align 1 dereferenceable(16) %34, i64 noundef %37) #10
  store i8 0, ptr %38, align 1
  %39 = load i32, ptr %7, align 4
  %40 = getelementptr inbounds %"struct.Luau::CodeGen::X64::IrRegAllocX64", ptr %9, i32 0, i32 7
  %41 = load i8, ptr %5, align 1
  %42 = lshr i8 %41, 3
  %43 = zext i8 %42 to i64
  %44 = call noundef nonnull align 4 dereferenceable(4) ptr @_ZNSt5arrayIjLm16EEixEm(ptr noundef nonnull align 4 dereferenceable(64) %40, i64 noundef %43) #10
  store i32 %39, ptr %44, align 4
  br label %77

45:                                               ; preds = %3
  %46 = getelementptr inbounds %"struct.Luau::CodeGen::X64::IrRegAllocX64", ptr %9, i32 0, i32 4
  %47 = load i8, ptr %5, align 1
  %48 = lshr i8 %47, 3
  %49 = zext i8 %48 to i64
  %50 = call noundef nonnull align 1 dereferenceable(1) ptr @_ZNSt5arrayIbLm16EEixEm(ptr noundef nonnull align 1 dereferenceable(16) %46, i64 noundef %49) #10
  %51 = load i8, ptr %50, align 1
  %52 = trunc i8 %51 to i1
  br i1 %52, label %65, label %53

53:                                               ; preds = %45
  %54 = getelementptr inbounds %"struct.Luau::CodeGen::X64::IrRegAllocX64", ptr %9, i32 0, i32 1
  %55 = load ptr, ptr %54, align 8
  %56 = getelementptr inbounds %"struct.Luau::CodeGen::IrFunction", ptr %55, i32 0, i32 1
  %57 = getelementptr inbounds %"struct.Luau::CodeGen::X64::IrRegAllocX64", ptr %9, i32 0, i32 5
  %58 = load i8, ptr %5, align 1
  %59 = lshr i8 %58, 3
  %60 = zext i8 %59 to i64
  %61 = call noundef nonnull align 4 dereferenceable(4) ptr @_ZNSt5arrayIjLm16EEixEm(ptr noundef nonnull align 4 dereferenceable(64) %57, i64 noundef %60) #10
  %62 = load i32, ptr %61, align 4
  %63 = zext i32 %62 to i64
  %64 = call noundef nonnull align 4 dereferenceable(43) ptr @_ZNSt6vectorIN4Luau7CodeGen6IrInstESaIS2_EEixEm(ptr noundef nonnull align 8 dereferenceable(24) %56, i64 noundef %63) #10
  call void @_ZN4Luau7CodeGen3X6413IrRegAllocX648preserveERNS0_6IrInstE(ptr noundef nonnull align 8 dereferenceable(256) %9, ptr noundef nonnull align 4 dereferenceable(43) %64)
  br label %65

65:                                               ; preds = %53, %45
  %66 = getelementptr inbounds %"struct.Luau::CodeGen::X64::IrRegAllocX64", ptr %9, i32 0, i32 4
  %67 = load i8, ptr %5, align 1
  %68 = lshr i8 %67, 3
  %69 = zext i8 %68 to i64
  %70 = call noundef nonnull align 1 dereferenceable(1) ptr @_ZNSt5arrayIbLm16EEixEm(ptr noundef nonnull align 1 dereferenceable(16) %66, i64 noundef %69) #10
  store i8 0, ptr %70, align 1
  %71 = load i32, ptr %7, align 4
  %72 = getelementptr inbounds %"struct.Luau::CodeGen::X64::IrRegAllocX64", ptr %9, i32 0, i32 5
  %73 = load i8, ptr %5, align 1
  %74 = lshr i8 %73, 3
  %75 = zext i8 %74 to i64
  %76 = call noundef nonnull align 4 dereferenceable(4) ptr @_ZNSt5arrayIjLm16EEixEm(ptr noundef nonnull align 4 dereferenceable(64) %72, i64 noundef %75) #10
  store i32 %71, ptr %76, align 4
  br label %77

77:                                               ; preds = %65, %33
  call void @llvm.memcpy.p0.p0.i64(ptr align 1 %4, ptr align 1 %5, i64 1, i1 false)
  %78 = getelementptr inbounds %"struct.Luau::CodeGen::X64::RegisterX64", ptr %4, i32 0, i32 0
  %79 = load i8, ptr %78, align 1
  ret i8 %79
}

; Function Attrs: mustprogress uwtable
define dso_local void @_ZN4Luau7CodeGen3X6412ScopedRegX644takeENS1_11RegisterX64E(ptr noundef nonnull align 8 dereferenceable(9) %0, i8 %1) #0 align 2 {
  %3 = alloca %"struct.Luau::CodeGen::X64::RegisterX64", align 1
  %4 = alloca ptr, align 8
  %5 = alloca %"struct.Luau::CodeGen::X64::RegisterX64", align 1
  %6 = alloca %"struct.Luau::CodeGen::X64::RegisterX64", align 1
  %7 = getelementptr inbounds %"struct.Luau::CodeGen::X64::RegisterX64", ptr %3, i32 0, i32 0
  store i8 %1, ptr %7, align 1
  store ptr %0, ptr %4, align 8
  %8 = load ptr, ptr %4, align 8
  %9 = getelementptr inbounds %"struct.Luau::CodeGen::X64::ScopedRegX64", ptr %8, i32 0, i32 0
  %10 = load ptr, ptr %9, align 8
  call void @llvm.memcpy.p0.p0.i64(ptr align 1 %6, ptr align 1 %3, i64 1, i1 false)
  %11 = getelementptr inbounds %"struct.Luau::CodeGen::X64::RegisterX64", ptr %6, i32 0, i32 0
  %12 = load i8, ptr %11, align 1
  %13 = call i8 @_ZN4Luau7CodeGen3X6413IrRegAllocX647takeRegENS1_11RegisterX64Ej(ptr noundef nonnull align 8 dereferenceable(256) %10, i8 %12, i32 noundef -1)
  %14 = getelementptr inbounds %"struct.Luau::CodeGen::X64::RegisterX64", ptr %5, i32 0, i32 0
  store i8 %13, ptr %14, align 1
  %15 = getelementptr inbounds %"struct.Luau::CodeGen::X64::ScopedRegX64", ptr %8, i32 0, i32 1
  call void @llvm.memcpy.p0.p0.i64(ptr align 8 %15, ptr align 1 %5, i64 1, i1 false)
  ret void
}